; Function Attrs: nounwind uwtable
define hidden void @je_arena_slab_dalloc(ptr noundef %0, ptr noundef %1, ptr noundef %2) local_unnamed_addr #0 {
  %4 = alloca i8, align 1
  call void @llvm.lifetime.start.p0(i64 1, ptr nonnull %4) #18
  store i8 0, ptr %4, align 1, !tbaa !147
  %5 = getelementptr inbounds nuw i8, ptr %1, i64 10664
  call void @je_pa_dalloc(ptr noundef %0, ptr noundef nonnull %5, ptr noundef %2, ptr noundef nonnull %4) #18
  %6 = load i8, ptr %4, align 1, !tbaa !147, !range !154, !noundef !155
  %7 = trunc nuw i8 %6 to i1
  br i1 %7, label %8, label %9

8:                                                ; preds = %3
  call void @je_arena_handle_deferred_work(ptr noundef %0, ptr noundef nonnull %1)
  br label %9

9:                                                ; preds = %8, %3
  call void @llvm.lifetime.end.p0(i64 1, ptr nonnull %4) #18
  ret void
}